; ModuleID = '19/3047.c'
source_filename = "19/3047.c"
target datalayout = "e-m:e-p270:32:32-p271:32:32-p272:64:64-i64:64-f80:128-n8:16:32:64-S128"
target triple = "x86_64-pc-linux-gnu"

@temp = common dso_local global [101 x i8] zeroinitializer, align 16
@a = common dso_local global [101 x i8] zeroinitializer, align 16
@.str = private unnamed_addr constant [3 x i8] c"%s\00", align 1
@b = common dso_local global [101 x i8] zeroinitializer, align 16
@s = common dso_local global [101 x i8] zeroinitializer, align 16
@.str.1 = private unnamed_addr constant [2 x i8] c" \00", align 1
@.str.2 = private unnamed_addr constant [2 x i8] c"\0A\00", align 1

; Function Attrs: noinline nounwind uwtable
define dso_local void @judge() #0 {
  %1 = call i32 @strcmp(i8* getelementptr inbounds ([101 x i8], [101 x i8]* @temp, i64 0, i64 0), i8* getelementptr inbounds ([101 x i8], [101 x i8]* @a, i64 0, i64 0)) #3
  %2 = icmp eq i32 %1, 0
  br i1 %2, label %3, label %5

3:                                                ; preds = %0
  %4 = call i32 (i8*, ...) @printf(i8* getelementptr inbounds ([3 x i8], [3 x i8]* @.str, i64 0, i64 0), i8* getelementptr inbounds ([101 x i8], [101 x i8]* @b, i64 0, i64 0))
  br label %7

5:                                                ; preds = %0
  %6 = call i32 (i8*, ...) @printf(i8* getelementptr inbounds ([3 x i8], [3 x i8]* @.str, i64 0, i64 0), i8* getelementptr inbounds ([101 x i8], [101 x i8]* @temp, i64 0, i64 0))
  br label %7

7:                                                ; preds = %5, %3
  ret void
}

; Function Attrs: nounwind readonly
declare dso_local i32 @strcmp(i8*, i8*) #1

declare dso_local i32 @printf(i8*, ...) #2

; Function Attrs: noinline nounwind uwtable
define dso_local void @check() #0 {
  %1 = alloca i32, align 4
  %2 = alloca i32, align 4
  %3 = alloca i32, align 4
  %4 = alloca i32, align 4
  %5 = call i64 @strlen(i8* getelementptr inbounds ([101 x i8], [101 x i8]* @s, i64 0, i64 0)) #3
  %6 = trunc i64 %5 to i32
  store i32 %6, i32* %2, align 4
  store i32 0, i32* %3, align 4
  store i32 0, i32* %1, align 4
  br label %7

7:                                                ; preds = %48, %0
  %8 = load i32, i32* %1, align 4
  %9 = load i32, i32* %2, align 4
  %10 = icmp slt i32 %8, %9
  br i1 %10, label %11, label %51

11:                                               ; preds = %7
  %12 = load i32, i32* %1, align 4
  %13 = sext i32 %12 to i64
  %14 = getelementptr inbounds [101 x i8], [101 x i8]* @s, i64 0, i64 %13
  %15 = load i8, i8* %14, align 1
  %16 = sext i8 %15 to i32
  %17 = icmp ne i32 %16, 32
  br i1 %17, label %18, label %28

18:                                               ; preds = %11
  %19 = load i32, i32* %1, align 4
  %20 = sext i32 %19 to i64
  %21 = getelementptr inbounds [101 x i8], [101 x i8]* @s, i64 0, i64 %20
  %22 = load i8, i8* %21, align 1
  %23 = load i32, i32* %3, align 4
  %24 = sext i32 %23 to i64
  %25 = getelementptr inbounds [101 x i8], [101 x i8]* @temp, i64 0, i64 %24
  store i8 %22, i8* %25, align 1
  %26 = load i32, i32* %3, align 4
  %27 = add nsw i32 %26, 1
  store i32 %27, i32* %3, align 4
  br label %47

28:                                               ; preds = %11
  %29 = load i32, i32* %3, align 4
  %30 = add nsw i32 %29, 1
  %31 = sext i32 %30 to i64
  %32 = getelementptr inbounds [101 x i8], [101 x i8]* @temp, i64 0, i64 %31
  store i8 0, i8* %32, align 1
  call void @judge()
  %33 = call i32 (i8*, ...) @printf(i8* getelementptr inbounds ([2 x i8], [2 x i8]* @.str.1, i64 0, i64 0))
  store i32 0, i32* %4, align 4
  br label %34

34:                                               ; preds = %43, %28
  %35 = load i32, i32* %4, align 4
  %36 = load i32, i32* %3, align 4
  %37 = add nsw i32 %36, 2
  %38 = icmp slt i32 %35, %37
  br i1 %38, label %39, label %46

39:                                               ; preds = %34
  %40 = load i32, i32* %4, align 4
  %41 = sext i32 %40 to i64
  %42 = getelementptr inbounds [101 x i8], [101 x i8]* @temp, i64 0, i64 %41
  store i8 0, i8* %42, align 1
  br label %43

43:                                               ; preds = %39
  %44 = load i32, i32* %4, align 4
  %45 = add nsw i32 %44, 1
  store i32 %45, i32* %4, align 4
  br label %34

46:                                               ; preds = %34
  store i32 0, i32* %3, align 4
  br label %47

47:                                               ; preds = %46, %18
  br label %48

48:                                               ; preds = %47
  %49 = load i32, i32* %1, align 4
  %50 = add nsw i32 %49, 1
  store i32 %50, i32* %1, align 4
  br label %7

51:                                               ; preds = %7
  %52 = load i32, i32* %3, align 4
  %53 = add nsw i32 %52, 1
  %54 = sext i32 %53 to i64
  %55 = getelementptr inbounds [101 x i8], [101 x i8]* @temp, i64 0, i64 %54
  store i8 0, i8* %55, align 1
  call void @judge()
  ret void
}

; Function Attrs: nounwind readonly
declare dso_local i64 @strlen(i8*) #1

; Function Attrs: noinline nounwind uwtable
define dso_local i32 @main() #0 {
  %1 = alloca i32, align 4
  store i32 0, i32* %1, align 4
  %2 = call i32 (i8*, ...) bitcast (i32 (...)* @gets to i32 (i8*, ...)*)(i8* getelementptr inbounds ([101 x i8], [101 x i8]* @s, i64 0, i64 0))
  %3 = call i32 (i8*, ...) bitcast (i32 (...)* @gets to i32 (i8*, ...)*)(i8* getelementptr inbounds ([101 x i8], [101 x i8]* @a, i64 0, i64 0))
  %4 = call i32 (i8*, ...) bitcast (i32 (...)* @gets to i32 (i8*, ...)*)(i8* getelementptr inbounds ([101 x i8], [101 x i8]* @b, i64 0, i64 0))
  call void @check()
  %5 = call i32 (i8*, ...) @printf(i8* getelementptr inbounds ([2 x i8], [2 x i8]* @.str.2, i64 0, i64 0))
  ret i32 0
}

declare dso_local i32 @gets(...) #2


!llvm.module.flags = !{!0}
!llvm.ident = !{!1}

!0 = !{i32 1, !"wchar_size", i32 4}
!1 = !{!"clang version 10.0.0-4ubuntu1 "}
